target datalayout = "e-m:e-p270:32:32-p271:32:32-p272:64:64-i64:64-i128:128-f80:128-n8:16:32:64-S128"
target triple = "x86_64-unknown-linux-gnu"

; Function Attrs: mustprogress nounwind uwtable
define hidden void @_Z24bcdec__sharp_alpha_blockPKvPvi(ptr noundef %compressedBlock, ptr noundef %decompressedBlock, i32 noundef %destinationPitch) #4 {
entry:
  %compressedBlock.addr = alloca ptr, align 8
  %decompressedBlock.addr = alloca ptr, align 8
  %destinationPitch.addr = alloca i32, align 4
  %alpha = alloca ptr, align 8
  %decompressed = alloca ptr, align 8
  %i = alloca i32, align 4
  %j = alloca i32, align 4
  store ptr %compressedBlock, ptr %compressedBlock.addr, align 8
  store ptr %decompressedBlock, ptr %decompressedBlock.addr, align 8
  store i32 %destinationPitch, ptr %destinationPitch.addr, align 4
  %0 = load ptr, ptr %compressedBlock.addr, align 8
  store ptr %0, ptr %alpha, align 8
  %1 = load ptr, ptr %decompressedBlock.addr, align 8
  store ptr %1, ptr %decompressed, align 8
  store i32 0, ptr %i, align 4
  br label %for.cond

for.cond:                                         ; preds = %for.inc9, %entry
  %2 = load i32, ptr %i, align 4
  %cmp = icmp slt i32 %2, 4
  br i1 %cmp, label %for.body, label %for.end11

for.body:                                         ; preds = %for.cond
  store i32 0, ptr %j, align 4
  br label %for.cond1

for.cond1:                                        ; preds = %for.inc, %for.body
  %3 = load i32, ptr %j, align 4
  %cmp2 = icmp slt i32 %3, 4
  br i1 %cmp2, label %for.body3, label %for.end

for.body3:                                        ; preds = %for.cond1
  %4 = load ptr, ptr %alpha, align 8
  %5 = load i32, ptr %i, align 4
  %idxprom = sext i32 %5 to i64
  %arrayidx = getelementptr inbounds i16, ptr %4, i64 %idxprom
  %6 = load i16, ptr %arrayidx, align 2
  %conv = zext i16 %6 to i32
  %7 = load i32, ptr %j, align 4
  %mul = mul nsw i32 4, %7
  %shr = ashr i32 %conv, %mul
  %and = and i32 %shr, 15
  %mul4 = mul nsw i32 %and, 17
  %conv5 = trunc i32 %mul4 to i8
  %8 = load ptr, ptr %decompressed, align 8
  %9 = load i32, ptr %j, align 4
  %mul6 = mul nsw i32 %9, 4
  %idxprom7 = sext i32 %mul6 to i64
  %arrayidx8 = getelementptr inbounds i8, ptr %8, i64 %idxprom7
  store i8 %conv5, ptr %arrayidx8, align 1
  br label %for.inc

for.inc:                                          ; preds = %for.body3
  %10 = load i32, ptr %j, align 4
  %inc = add nsw i32 %10, 1
  store i32 %inc, ptr %j, align 4
  br label %for.cond1, !llvm.loop !7

for.end:                                          ; preds = %for.cond1
  %11 = load i32, ptr %destinationPitch.addr, align 4
  %12 = load ptr, ptr %decompressed, align 8
  %idx.ext = sext i32 %11 to i64
  %add.ptr = getelementptr inbounds i8, ptr %12, i64 %idx.ext
  store ptr %add.ptr, ptr %decompressed, align 8
  br label %for.inc9

for.inc9:                                         ; preds = %for.end
  %13 = load i32, ptr %i, align 4
  %inc10 = add nsw i32 %13, 1
  store i32 %inc10, ptr %i, align 4
  br label %for.cond, !llvm.loop !8

for.end11:                                        ; preds = %for.cond
  ret void
}