; Function Attrs: mustprogress nofree norecurse nosync nounwind memory(write, argmem: readwrite, inaccessiblemem: none) uwtable
define hidden void @_Z24bcdec__sharp_alpha_blockPKvPvi(ptr nocapture noundef readonly %compressedBlock, ptr nocapture noundef writeonly %decompressedBlock, i32 noundef %destinationPitch) local_unnamed_addr #5 {
entry:
  %idx.ext = sext i32 %destinationPitch to i64
  br label %for.cond1.preheader

for.cond1.preheader:                              ; preds = %entry, %for.end
  %indvars.iv12 = phi i64 [ 0, %entry ], [ %indvars.iv.next13, %for.end ]
  %decompressed.08 = phi ptr [ %decompressedBlock, %entry ], [ %add.ptr, %for.end ]
  %arrayidx = getelementptr inbounds i16, ptr %compressedBlock, i64 %indvars.iv12
  br label %for.body3

for.body3:                                        ; preds = %for.cond1.preheader, %for.body3
  %indvars.iv = phi i64 [ 0, %for.cond1.preheader ], [ %indvars.iv.next, %for.body3 ]
  %0 = load i16, ptr %arrayidx, align 2
  %conv = zext i16 %0 to i32
  %1 = shl nuw nsw i64 %indvars.iv, 2
  %2 = trunc i64 %1 to i32
  %shr = lshr i32 %conv, %2
  %3 = trunc i32 %shr to i8
  %4 = and i8 %3, 15
  %conv5 = mul nuw i8 %4, 17
  %arrayidx8 = getelementptr inbounds i8, ptr %decompressed.08, i64 %1
  store i8 %conv5, ptr %arrayidx8, align 1
  %indvars.iv.next = add nuw nsw i64 %indvars.iv, 1
  %exitcond.not = icmp eq i64 %indvars.iv.next, 4
  br i1 %exitcond.not, label %for.end, label %for.body3, !llvm.loop !7

for.end:                                          ; preds = %for.body3
  %add.ptr = getelementptr inbounds i8, ptr %decompressed.08, i64 %idx.ext
  %indvars.iv.next13 = add nuw nsw i64 %indvars.iv12, 1
  %exitcond15.not = icmp eq i64 %indvars.iv.next13, 4
  br i1 %exitcond15.not, label %for.end11, label %for.cond1.preheader, !llvm.loop !8

for.end11:                                        ; preds = %for.end
  ret void
}